target datalayout = "e-m:e-p270:32:32-p271:32:32-p272:64:64-i64:64-i128:128-f80:128-n8:16:32:64-S128"
target triple = "x86_64-pc-linux-gnu"

%struct.WarpedMotionParams = type { [8 x i32], i16, i16, i16, i16, i8, i8 }
%struct.DecoderCodingBlock = type { %struct.macroblockd, i32, [2 x ptr], [3 x ptr], [3 x i16], [3 x ptr], [3 x i16], [29 x i8], [29 x i8] }
%struct.macroblockd = type { i32, i32, i32, i8, [3 x %struct.macroblockd_plane], %struct.TileInfo, ptr, i8, i8, i8, i8, ptr, ptr, ptr, ptr, ptr, i32, i32, i32, i32, i32, [2 x ptr], ptr, [3 x ptr], [3 x [32 x i8]], ptr, [32 x i8], ptr, ptr, [32 x i8], [3 x %struct.WienerInfo], [3 x %struct.SgrprojInfo], i8, i8, [29 x [8 x %struct.candidate_mv]], [29 x [8 x i16]], i8, i8, [8 x i8], ptr, i32, [8 x i32], [8 x i32], i32, i32, ptr, ptr, i8, [4 x i8], [4 x i8], [7 x i8], [32768 x i8], %struct.cfl_ctx, [2 x i16], ptr, [2 x ptr] }
%struct.macroblockd_plane = type { i8, i32, i32, %struct.buf_2d, [2 x %struct.buf_2d], ptr, ptr, [8 x [2 x i16]], ptr, i8, i8, [8 x [19 x ptr]], [8 x [19 x ptr]] }
%struct.buf_2d = type { ptr, ptr, i32, i32, i32 }
%struct.TileInfo = type { i32, i32, i32, i32, i32, i32 }
%struct.WienerInfo = type { [8 x i16], [8 x i16] }
%struct.SgrprojInfo = type { i32, [2 x i32] }
%struct.candidate_mv = type { %union.int_mv, %union.int_mv }
%union.int_mv = type { i32 }
%struct.cfl_ctx = type { [1024 x i16], [1024 x i16], [2 x i32], i32, [2 x [32 x i16]], i32, i32, i32, i32, i32, i32 }
%struct.AV1Common = type { %struct.CurrentFrame, %struct.aom_internal_error_info, i32, i32, i32, i32, i32, i32, i8, i8, [33 x i32], i32, ptr, ptr, [8 x i32], %struct.scale_factors, [8 x %struct.scale_factors], [8 x ptr], i32, i32, i32, %struct.FeatureFlags, %struct.CommonModeInfoParams, %struct.CommonQuantParams, %struct.segmentation, ptr, [8 x i8], %struct.loop_filter_info_n, %struct.loopfilter, [3 x %struct.RestorationInfo], ptr, ptr, %struct.yv12_buffer_config, %struct.CdefInfo, %struct.aom_film_grain_t, %struct.DeltaQInfo, [8 x %struct.WarpedMotionParams], %struct.SequenceHeader, ptr, ptr, %struct.CommonTileParams, ptr, %struct.CommonContexts, i32, [8 x i32], ptr, i32, [8 x i32], [8 x i8], i32, i32, i32, i32 }
%struct.CurrentFrame = type { i8, i8, i32, i32, i32, %struct.SkipModeInfo, i32, i32 }
%struct.SkipModeInfo = type { i32, i32, i32, i32 }
%struct.aom_internal_error_info = type { i32, i32, [200 x i8], i32, [1 x %struct.__jmp_buf_tag] }
%struct.__jmp_buf_tag = type { [8 x i64], i32, %struct.__sigset_t }
%struct.__sigset_t = type { [16 x i64] }
%struct.scale_factors = type { i32, i32, i32, i32, ptr, ptr }
%struct.FeatureFlags = type { i8, i8, i8, i8, i8, i8, i8, i8, i8, i8, i8, i8, i8, i8, i32, i32, i8 }
%struct.CommonModeInfoParams = type { i32, i32, i32, i32, i32, ptr, i32, i32, i8, ptr, i32, i32, ptr, ptr, ptr, ptr }
%struct.CommonQuantParams = type { i32, i32, i32, i32, i32, i32, [8 x [2 x i16]], [8 x [2 x i16]], [8 x [2 x i16]], [16 x [3 x [19 x ptr]]], [16 x [3 x [19 x ptr]]], [8 x [19 x ptr]], [8 x [19 x ptr]], [8 x [19 x ptr]], i8, i32, i32, i32 }
%struct.segmentation = type { i8, i8, i8, i8, [8 x [8 x i16]], [8 x i32], i32, i8 }
%struct.loop_filter_info_n = type { [64 x %struct.loop_filter_thresh], [3 x [8 x [2 x [8 x [2 x i8]]]]] }
%struct.loop_filter_thresh = type { [16 x i8], [16 x i8], [16 x i8] }
%struct.loopfilter = type { [2 x i32], i32, i32, i32, i8, i8, [8 x i8], [2 x i8], i32 }
%struct.RestorationInfo = type { i32, i32, i32, i32, i32, ptr, %struct.RestorationStripeBoundaries, i32 }
%struct.RestorationStripeBoundaries = type { ptr, ptr, i32, i32 }
%struct.CdefInfo = type { i32, i32, [16 x i32], [16 x i32], i32 }
%struct.aom_film_grain_t = type { i32, i32, [14 x [2 x i32]], i32, [10 x [2 x i32]], i32, [10 x [2 x i32]], i32, i32, i32, [24 x i32], [25 x i32], [25 x i32], i32, i32, i32, i32, i32, i32, i32, i32, i32, i32, i32, i32, i16 }
%struct.DeltaQInfo = type { i32, i32, i32, i32, i32 }
%struct.SequenceHeader = type { i32, i32, i32, i32, i8, i32, i32, i8, i32, i32, %struct.OrderHintInfo, i8, i8, i8, i8, i8, i8, i8, i8, i8, i8, i8, i8, i8, i8, i32, i8, i8, i32, i32, i32, i32, i32, i32, i32, i8, i8, i32, [32 x i32], i32, %struct.aom_timing, i8, %struct.aom_dec_model_info, i8, [32 x i8], [32 x i8], [33 x %struct.aom_dec_model_op_parameters] }
%struct.OrderHintInfo = type { i32, i32, i32, i32 }
%struct.aom_timing = type { i32, i32, i32, i32 }
%struct.aom_dec_model_info = type { i32, i32, i32, i32 }
%struct.aom_dec_model_op_parameters = type { i32, i64, i64, i32, i32, i32, i32, i32 }
%struct.CommonTileParams = type { i32, i32, i32, i32, i32, i32, i32, i32, i32, i32, i32, i32, i32, i32, i32, [65 x i32], [65 x i32], i32, i32 }
%struct.CommonContexts = type { ptr, [3 x ptr], ptr, i32, i32, i32 }
%struct.eob_info = type { i16, i16 }
%struct.yv12_buffer_config = type { %union.anon, %union.anon.0, %union.anon.2, %union.anon.4, %union.anon.6, %union.anon.8, i32, [3 x ptr], ptr, i32, ptr, i64, i32, i64, i32, i32, i32, i32, i32, i32, i8, i32, i32, i32, i32, i32, i32, ptr }
%union.anon = type { %struct.anon }
%struct.anon = type { i32, i32 }
%union.anon.0 = type { %struct.anon.1 }
%struct.anon.1 = type { i32, i32 }
%union.anon.2 = type { %struct.anon.3 }
%struct.anon.3 = type { i32, i32 }
%union.anon.4 = type { %struct.anon.5 }
%struct.anon.5 = type { i32, i32 }
%union.anon.6 = type { %struct.anon.7 }
%struct.anon.7 = type { i32, i32 }
%union.anon.8 = type { %struct.anon.9 }
%struct.anon.9 = type { ptr, ptr, ptr }
%struct.MB_MODE_INFO = type <{ i8, i8, i8, i8, i32, [2 x %union.int_mv], [2 x i8], [2 x i8], %union.int_interpfilters, i8, i8, i8, i8, %struct.WarpedMotionParams, i8, i8, [6 x i8], %struct.INTERINTER_COMPOUND_DATA, [2 x i8], %struct.FILTER_INTRA_MODE_INFO, i8, i8, %struct.PALETTE_MODE_INFO, i8, i8, [16 x i8], i8, [4 x i8], i16, [7 x i8] }>
%union.int_interpfilters = type { i32 }
%struct.INTERINTER_COMPOUND_DATA = type { ptr, i8, i8, i8, i8 }
%struct.FILTER_INTRA_MODE_INFO = type { i8, i8 }
%struct.PALETTE_MODE_INFO = type { [24 x i16], [2 x i8] }

; Function Attrs: nounwind uwtable
define internal i32 @is_intrabc_block(ptr noundef %0) #0 {
  %2 = alloca ptr, align 8
  store ptr %0, ptr %2, align 8
  %3 = load ptr, ptr %2, align 8
  %4 = getelementptr inbounds nuw %struct.MB_MODE_INFO, ptr %3, i32 0, i32 28
  %5 = load i16, ptr %4, align 1
  %6 = lshr i16 %5, 7
  %7 = and i16 %6, 1
  %8 = trunc i16 %7 to i8
  %9 = zext i8 %8 to i32
  ret i32 %9
}

; Function Attrs: nounwind uwtable
define internal i32 @is_inter_block(ptr noundef %0) #0 {
  %2 = alloca ptr, align 8
  store ptr %0, ptr %2, align 8
  %3 = load ptr, ptr %2, align 8
  %4 = call i32 @is_intrabc_block(ptr noundef %3)
  %5 = icmp ne i32 %4, 0
  br i1 %5, label %13, label %6

6:                                                ; preds = %1
  %7 = load ptr, ptr %2, align 8
  %8 = getelementptr inbounds nuw %struct.MB_MODE_INFO, ptr %7, i32 0, i32 6
  %9 = getelementptr inbounds [2 x i8], ptr %8, i64 0, i64 0
  %10 = load i8, ptr %9, align 8
  %11 = sext i8 %10 to i32
  %12 = icmp sgt i32 %11, 0
  br label %13

13:                                               ; preds = %6, %1
  %14 = phi i1 [ true, %1 ], [ %12, %6 ]
  %15 = zext i1 %14 to i32
  ret i32 %15
}

; Function Attrs: nounwind uwtable
define internal zeroext i8 @store_cfl_required(ptr noundef %0, ptr noundef %1) #0 {
  %3 = alloca i8, align 1
  %4 = alloca ptr, align 8
  %5 = alloca ptr, align 8
  %6 = alloca ptr, align 8
  store ptr %0, ptr %4, align 8
  store ptr %1, ptr %5, align 8
  %7 = load ptr, ptr %5, align 8
  %8 = getelementptr inbounds nuw %struct.macroblockd, ptr %7, i32 0, i32 6
  %9 = load ptr, ptr %8, align 8
  %10 = getelementptr inbounds ptr, ptr %9, i64 0
  %11 = load ptr, ptr %10, align 8
  store ptr %11, ptr %6, align 8
  %12 = load ptr, ptr %4, align 8
  %13 = getelementptr inbounds nuw %struct.AV1Common, ptr %12, i32 0, i32 37
  %14 = getelementptr inbounds nuw %struct.SequenceHeader, ptr %13, i32 0, i32 27
  %15 = load i8, ptr %14, align 1
  %16 = icmp ne i8 %15, 0
  br i1 %16, label %17, label %18

17:                                               ; preds = %2
  store i8 0, ptr %3, align 1
  br label %38

18:                                               ; preds = %2
  %19 = load ptr, ptr %5, align 8
  %20 = getelementptr inbounds nuw %struct.macroblockd, ptr %19, i32 0, i32 3
  %21 = load i8, ptr %20, align 4
  %22 = trunc i8 %21 to i1
  br i1 %22, label %24, label %23

23:                                               ; preds = %18
  store i8 1, ptr %3, align 1
  br label %38

24:                                               ; preds = %18
  %25 = load ptr, ptr %6, align 8
  %26 = call i32 @is_inter_block(ptr noundef %25)
  %27 = icmp ne i32 %26, 0
  br i1 %27, label %34, label %28

28:                                               ; preds = %24
  %29 = load ptr, ptr %6, align 8
  %30 = getelementptr inbounds nuw %struct.MB_MODE_INFO, ptr %29, i32 0, i32 3
  %31 = load i8, ptr %30, align 1
  %32 = zext i8 %31 to i32
  %33 = icmp eq i32 %32, 13
  br label %34

34:                                               ; preds = %28, %24
  %35 = phi i1 [ false, %24 ], [ %33, %28 ]
  %36 = zext i1 %35 to i32
  %37 = trunc i32 %36 to i8
  store i8 %37, ptr %3, align 1
  br label %38

38:                                               ; preds = %34, %23, %17
  %39 = load i8, ptr %3, align 1
  ret i8 %39
}

; Function Attrs: nounwind uwtable
define internal void @inverse_transform_block(ptr noundef %0, i32 noundef %1, i8 noundef zeroext %2, i8 noundef zeroext %3, ptr noundef %4, i32 noundef %5, i32 noundef %6) #0 {
  %8 = alloca ptr, align 8
  %9 = alloca i32, align 4
  %10 = alloca i8, align 1
  %11 = alloca i8, align 1
  %12 = alloca ptr, align 8
  %13 = alloca i32, align 4
  %14 = alloca i32, align 4
  %15 = alloca ptr, align 8
  %16 = alloca ptr, align 8
  %17 = alloca i16, align 2
  %18 = alloca i16, align 2
  store ptr %0, ptr %8, align 8
  store i32 %1, ptr %9, align 4
  store i8 %2, ptr %10, align 1
  store i8 %3, ptr %11, align 1
  store ptr %4, ptr %12, align 8
  store i32 %5, ptr %13, align 4
  store i32 %6, ptr %14, align 4
  %19 = load ptr, ptr %8, align 8
  %20 = getelementptr inbounds nuw %struct.DecoderCodingBlock, ptr %19, i32 0, i32 3
  %21 = load i32, ptr %9, align 4
  %22 = sext i32 %21 to i64
  %23 = getelementptr inbounds [3 x ptr], ptr %20, i64 0, i64 %22
  %24 = load ptr, ptr %23, align 8
  %25 = load ptr, ptr %8, align 8
  %26 = getelementptr inbounds nuw %struct.DecoderCodingBlock, ptr %25, i32 0, i32 4
  %27 = load i32, ptr %9, align 4
  %28 = sext i32 %27 to i64
  %29 = getelementptr inbounds [3 x i16], ptr %26, i64 0, i64 %28
  %30 = load i16, ptr %29, align 2
  %31 = zext i16 %30 to i32
  %32 = sext i32 %31 to i64
  %33 = getelementptr inbounds i32, ptr %24, i64 %32
  store ptr %33, ptr %15, align 8
  %34 = load ptr, ptr %8, align 8
  %35 = getelementptr inbounds nuw %struct.DecoderCodingBlock, ptr %34, i32 0, i32 5
  %36 = load i32, ptr %9, align 4
  %37 = sext i32 %36 to i64
  %38 = getelementptr inbounds [3 x ptr], ptr %35, i64 0, i64 %37
  %39 = load ptr, ptr %38, align 8
  %40 = load ptr, ptr %8, align 8
  %41 = getelementptr inbounds nuw %struct.DecoderCodingBlock, ptr %40, i32 0, i32 6
  %42 = load i32, ptr %9, align 4
  %43 = sext i32 %42 to i64
  %44 = getelementptr inbounds [3 x i16], ptr %41, i64 0, i64 %43
  %45 = load i16, ptr %44, align 2
  %46 = zext i16 %45 to i32
  %47 = sext i32 %46 to i64
  %48 = getelementptr inbounds %struct.eob_info, ptr %39, i64 %47
  store ptr %48, ptr %16, align 8
  %49 = load ptr, ptr %16, align 8
  %50 = getelementptr inbounds nuw %struct.eob_info, ptr %49, i32 0, i32 1
  %51 = load i16, ptr %50, align 2
  store i16 %51, ptr %17, align 2
  %52 = load ptr, ptr %16, align 8
  %53 = getelementptr inbounds nuw %struct.eob_info, ptr %52, i32 0, i32 0
  %54 = load i16, ptr %53, align 2
  store i16 %54, ptr %18, align 2
  %55 = load ptr, ptr %8, align 8
  %56 = getelementptr inbounds nuw %struct.DecoderCodingBlock, ptr %55, i32 0, i32 0
  %57 = load ptr, ptr %15, align 8
  %58 = load i32, ptr %9, align 4
  %59 = load i8, ptr %10, align 1
  %60 = load i8, ptr %11, align 1
  %61 = load ptr, ptr %12, align 8
  %62 = load i32, ptr %13, align 4
  %63 = load i16, ptr %18, align 2
  %64 = zext i16 %63 to i32
  %65 = load i32, ptr %14, align 4
  call void @av1_inverse_transform_block(ptr noundef %56, ptr noundef %57, i32 noundef %58, i8 noundef zeroext %59, i8 noundef zeroext %60, ptr noundef %61, i32 noundef %62, i32 noundef %64, i32 noundef %65)
  %66 = load ptr, ptr %15, align 8
  %67 = load i16, ptr %17, align 2
  %68 = zext i16 %67 to i32
  %69 = add nsw i32 %68, 1
  %70 = sext i32 %69 to i64
  %71 = mul i64 %70, 4
  call void @llvm.memset.p0.i64(ptr align 4 %66, i8 0, i64 %71, i1 false)
  ret void
}

; Function Attrs: nounwind uwtable
define internal zeroext i8 @get_plane_type(i32 noundef %0) #0 {
  %2 = alloca i32, align 4
  store i32 %0, ptr %2, align 4
  %3 = load i32, ptr %2, align 4
  %4 = icmp eq i32 %3, 0
  %5 = select i1 %4, i32 0, i32 1
  %6 = trunc i32 %5 to i8
  ret i8 %6
}

; Function Attrs: nounwind uwtable
define internal void @predict_and_reconstruct_intra_block(ptr noundef %0, ptr noundef %1, ptr noundef %2, i32 noundef %3, i32 noundef %4, i32 noundef %5, i8 noundef zeroext %6) #0 {
  %8 = alloca ptr, align 8
  %9 = alloca ptr, align 8
  %10 = alloca ptr, align 8
  %11 = alloca i32, align 4
  %12 = alloca i32, align 4
  %13 = alloca i32, align 4
  %14 = alloca i8, align 1
  %15 = alloca ptr, align 8
  %16 = alloca ptr, align 8
  %17 = alloca i8, align 1
  %18 = alloca ptr, align 8
  %19 = alloca i8, align 1
  %20 = alloca i8, align 1
  %21 = alloca ptr, align 8
  %22 = alloca ptr, align 8
  store ptr %0, ptr %8, align 8
  store ptr %1, ptr %9, align 8
  store ptr %2, ptr %10, align 8
  store i32 %3, ptr %11, align 4
  store i32 %4, ptr %12, align 4
  store i32 %5, ptr %13, align 4
  store i8 %6, ptr %14, align 1
  %23 = load ptr, ptr %9, align 8
  %24 = getelementptr inbounds nuw %struct.DecoderCodingBlock, ptr %23, i32 0, i32 0
  store ptr %24, ptr %15, align 8
  %25 = load ptr, ptr %15, align 8
  %26 = getelementptr inbounds nuw %struct.macroblockd, ptr %25, i32 0, i32 6
  %27 = load ptr, ptr %26, align 8
  %28 = getelementptr inbounds ptr, ptr %27, i64 0
  %29 = load ptr, ptr %28, align 8
  store ptr %29, ptr %16, align 8
  %30 = load i32, ptr %11, align 4
  %31 = call zeroext i8 @get_plane_type(i32 noundef %30)
  store i8 %31, ptr %17, align 1
  %32 = load ptr, ptr %8, align 8
  %33 = load ptr, ptr %15, align 8
  %34 = load i32, ptr %11, align 4
  %35 = load i32, ptr %13, align 4
  %36 = load i32, ptr %12, align 4
  %37 = load i8, ptr %14, align 1
  call void @av1_predict_intra_block_facade(ptr noundef %32, ptr noundef %33, i32 noundef %34, i32 noundef %35, i32 noundef %36, i8 noundef zeroext %37)
  %38 = load ptr, ptr %16, align 8
  %39 = getelementptr inbounds nuw %struct.MB_MODE_INFO, ptr %38, i32 0, i32 23
  %40 = load i8, ptr %39, align 8
  %41 = icmp ne i8 %40, 0
  br i1 %41, label %111, label %42

42:                                               ; preds = %7
  %43 = load ptr, ptr %9, align 8
  %44 = getelementptr inbounds nuw %struct.DecoderCodingBlock, ptr %43, i32 0, i32 5
  %45 = load i32, ptr %11, align 4
  %46 = sext i32 %45 to i64
  %47 = getelementptr inbounds [3 x ptr], ptr %44, i64 0, i64 %46
  %48 = load ptr, ptr %47, align 8
  %49 = load ptr, ptr %9, align 8
  %50 = getelementptr inbounds nuw %struct.DecoderCodingBlock, ptr %49, i32 0, i32 6
  %51 = load i32, ptr %11, align 4
  %52 = sext i32 %51 to i64
  %53 = getelementptr inbounds [3 x i16], ptr %50, i64 0, i64 %52
  %54 = load i16, ptr %53, align 2
  %55 = zext i16 %54 to i32
  %56 = sext i32 %55 to i64
  %57 = getelementptr inbounds %struct.eob_info, ptr %48, i64 %56
  store ptr %57, ptr %18, align 8
  %58 = load ptr, ptr %18, align 8
  %59 = getelementptr inbounds nuw %struct.eob_info, ptr %58, i32 0, i32 0
  %60 = load i16, ptr %59, align 2
  %61 = icmp ne i16 %60, 0
  br i1 %61, label %62, label %110

62:                                               ; preds = %42
  %63 = load ptr, ptr %8, align 8
  %64 = getelementptr inbounds nuw %struct.AV1Common, ptr %63, i32 0, i32 21
  %65 = getelementptr inbounds nuw %struct.FeatureFlags, ptr %64, i32 0, i32 9
  %66 = load i8, ptr %65, align 1
  %67 = trunc i8 %66 to i1
  %68 = zext i1 %67 to i8
  store i8 %68, ptr %19, align 1
  %69 = load ptr, ptr %15, align 8
  %70 = load i8, ptr %17, align 1
  %71 = load i32, ptr %12, align 4
  %72 = load i32, ptr %13, align 4
  %73 = load i8, ptr %14, align 1
  %74 = load i8, ptr %19, align 1
  %75 = trunc i8 %74 to i1
  %76 = zext i1 %75 to i32
  %77 = call zeroext i8 @av1_get_tx_type(ptr noundef %69, i8 noundef zeroext %70, i32 noundef %71, i32 noundef %72, i8 noundef zeroext %73, i32 noundef %76)
  store i8 %77, ptr %20, align 1
  %78 = load ptr, ptr %15, align 8
  %79 = getelementptr inbounds nuw %struct.macroblockd, ptr %78, i32 0, i32 4
  %80 = load i32, ptr %11, align 4
  %81 = sext i32 %80 to i64
  %82 = getelementptr inbounds [3 x %struct.macroblockd_plane], ptr %79, i64 0, i64 %81
  store ptr %82, ptr %21, align 8
  %83 = load ptr, ptr %21, align 8
  %84 = getelementptr inbounds nuw %struct.macroblockd_plane, ptr %83, i32 0, i32 3
  %85 = getelementptr inbounds nuw %struct.buf_2d, ptr %84, i32 0, i32 0
  %86 = load ptr, ptr %85, align 8
  %87 = load i32, ptr %12, align 4
  %88 = load ptr, ptr %21, align 8
  %89 = getelementptr inbounds nuw %struct.macroblockd_plane, ptr %88, i32 0, i32 3
  %90 = getelementptr inbounds nuw %struct.buf_2d, ptr %89, i32 0, i32 4
  %91 = load i32, ptr %90, align 8
  %92 = mul nsw i32 %87, %91
  %93 = load i32, ptr %13, align 4
  %94 = add nsw i32 %92, %93
  %95 = shl i32 %94, 2
  %96 = sext i32 %95 to i64
  %97 = getelementptr inbounds i8, ptr %86, i64 %96
  store ptr %97, ptr %22, align 8
  %98 = load ptr, ptr %9, align 8
  %99 = load i32, ptr %11, align 4
  %100 = load i8, ptr %20, align 1
  %101 = load i8, ptr %14, align 1
  %102 = load ptr, ptr %22, align 8
  %103 = load ptr, ptr %21, align 8
  %104 = getelementptr inbounds nuw %struct.macroblockd_plane, ptr %103, i32 0, i32 3
  %105 = getelementptr inbounds nuw %struct.buf_2d, ptr %104, i32 0, i32 4
  %106 = load i32, ptr %105, align 8
  %107 = load i8, ptr %19, align 1
  %108 = trunc i8 %107 to i1
  %109 = zext i1 %108 to i32
  call void @inverse_transform_block(ptr noundef %98, i32 noundef %99, i8 noundef zeroext %100, i8 noundef zeroext %101, ptr noundef %102, i32 noundef %106, i32 noundef %109)
  br label %110

110:                                              ; preds = %62, %42
  br label %111

111:                                              ; preds = %110, %7
  %112 = load i32, ptr %11, align 4
  %113 = icmp eq i32 %112, 0
  br i1 %113, label %114, label %128

114:                                              ; preds = %111
  %115 = load ptr, ptr %8, align 8
  %116 = load ptr, ptr %15, align 8
  %117 = call zeroext i8 @store_cfl_required(ptr noundef %115, ptr noundef %116)
  %118 = zext i8 %117 to i32
  %119 = icmp ne i32 %118, 0
  br i1 %119, label %120, label %128

120:                                              ; preds = %114
  %121 = load ptr, ptr %15, align 8
  %122 = load i32, ptr %12, align 4
  %123 = load i32, ptr %13, align 4
  %124 = load i8, ptr %14, align 1
  %125 = load ptr, ptr %16, align 8
  %126 = getelementptr inbounds nuw %struct.MB_MODE_INFO, ptr %125, i32 0, i32 0
  %127 = load i8, ptr %126, align 8
  call void @cfl_store_tx(ptr noundef %121, i32 noundef %122, i32 noundef %123, i8 noundef zeroext %124, i8 noundef zeroext %127)
  br label %128

128:                                              ; preds = %120, %114, %111
  ret void
}