; Function Attrs: nounwind uwtable
define internal void @predict_and_reconstruct_intra_block(ptr noundef %0, ptr noundef %1, ptr readnone captures(none) %2, i32 noundef %3, i32 noundef %4, i32 noundef %5, i8 noundef zeroext %6) #0 {
  %8 = getelementptr inbounds nuw i8, ptr %1, i64 7864
  %9 = load ptr, ptr %8, align 8
  %10 = load ptr, ptr %9, align 8
  %11 = icmp ne i32 %3, 0
  %12 = zext i1 %11 to i8
  tail call void @av1_predict_intra_block_facade(ptr noundef %0, ptr noundef %1, i32 noundef %3, i32 noundef %5, i32 noundef %4, i8 noundef zeroext %6) #16
  %13 = getelementptr inbounds nuw i8, ptr %10, i64 152
  %14 = load i8, ptr %13, align 8
  %.not = icmp eq i8 %14, 0
  br i1 %.not, label %15, label %56

15:                                               ; preds = %7
  %16 = getelementptr inbounds nuw i8, ptr %1, i64 47880
  %17 = sext i32 %3 to i64
  %18 = getelementptr inbounds [3 x ptr], ptr %16, i64 0, i64 %17
  %19 = load ptr, ptr %18, align 8
  %20 = getelementptr inbounds nuw i8, ptr %1, i64 47904
  %21 = getelementptr inbounds [3 x i16], ptr %20, i64 0, i64 %17
  %22 = load i16, ptr %21, align 2
  %23 = zext i16 %22 to i64
  %24 = getelementptr inbounds nuw %struct.eob_info, ptr %19, i64 %23
  %25 = load i16, ptr %24, align 2
  %.not42 = icmp eq i16 %25, 0
  br i1 %.not42, label %56, label %26

26:                                               ; preds = %15
  %27 = getelementptr inbounds nuw i8, ptr %0, i64 1045
  %28 = load i8, ptr %27, align 1
  %29 = and i8 %28, 1
  %30 = zext nneg i8 %29 to i32
  %31 = tail call fastcc zeroext i8 @av1_get_tx_type(ptr noundef nonnull %1, i8 noundef zeroext %12, i32 noundef %4, i32 noundef %5, i8 noundef zeroext %6, i32 noundef %30)
  %.idx = mul nsw i64 %17, 2608
  %32 = getelementptr i8, ptr %1, i64 32
  %33 = getelementptr i8, ptr %32, i64 %.idx
  %34 = load ptr, ptr %33, align 8
  %35 = getelementptr inbounds nuw i8, ptr %33, i64 24
  %36 = load i32, ptr %35, align 8
  %37 = mul nsw i32 %36, %4
  %38 = add nsw i32 %37, %5
  %39 = shl i32 %38, 2
  %40 = sext i32 %39 to i64
  %41 = getelementptr inbounds i8, ptr %34, i64 %40
  %42 = getelementptr inbounds nuw i8, ptr %1, i64 47848
  %43 = getelementptr inbounds [3 x ptr], ptr %42, i64 0, i64 %17
  %44 = load ptr, ptr %43, align 8
  %45 = getelementptr inbounds nuw i8, ptr %1, i64 47872
  %46 = getelementptr inbounds [3 x i16], ptr %45, i64 0, i64 %17
  %47 = load i16, ptr %46, align 2
  %48 = zext i16 %47 to i64
  %49 = getelementptr inbounds nuw i32, ptr %44, i64 %48
  %50 = getelementptr inbounds nuw i8, ptr %24, i64 2
  %51 = load i16, ptr %50, align 2
  %52 = zext i16 %25 to i32
  tail call void @av1_inverse_transform_block(ptr noundef nonnull %1, ptr noundef %49, i32 noundef %3, i8 noundef zeroext %31, i8 noundef zeroext %6, ptr noundef %41, i32 noundef %36, i32 noundef %52, i32 noundef range(i32 0, 2) %30) #16
  %53 = zext i16 %51 to i64
  %54 = shl nuw nsw i64 %53, 2
  %55 = add nuw nsw i64 %54, 4
  tail call void @llvm.memset.p0.i64(ptr noundef nonnull align 4 dereferenceable(1) %49, i8 0, i64 %55, i1 false)
  br label %56

56:                                               ; preds = %15, %26, %7
  %57 = icmp eq i32 %3, 0
  br i1 %57, label %58, label %store_cfl_required.exit.thread

58:                                               ; preds = %56
  %59 = getelementptr i8, ptr %0, i64 25261
  %.val = load i8, ptr %59, align 1
  %60 = load ptr, ptr %8, align 8
  %61 = load ptr, ptr %60, align 8
  %.not.i = icmp eq i8 %.val, 0
  br i1 %.not.i, label %62, label %store_cfl_required.exit.thread

62:                                               ; preds = %58
  %63 = getelementptr inbounds nuw i8, ptr %1, i64 12
  %64 = load i8, ptr %63, align 4
  %65 = trunc i8 %64 to i1
  br i1 %65, label %66, label %store_cfl_required.exit.thread46

66:                                               ; preds = %62
  %67 = getelementptr i8, ptr %61, i64 175
  %.val.i.i = load i16, ptr %67, align 1
  %68 = and i16 %.val.i.i, 128
  %.not.i.i = icmp eq i16 %68, 0
  br i1 %.not.i.i, label %is_inter_block.exit.i, label %store_cfl_required.exit.thread

is_inter_block.exit.i:                            ; preds = %66
  %69 = getelementptr inbounds nuw i8, ptr %61, i64 16
  %70 = load i8, ptr %69, align 8
  %71 = icmp slt i8 %70, 1
  br i1 %71, label %store_cfl_required.exit, label %store_cfl_required.exit.thread

store_cfl_required.exit:                          ; preds = %is_inter_block.exit.i
  %72 = getelementptr inbounds nuw i8, ptr %61, i64 3
  %73 = load i8, ptr %72, align 1
  %.not49 = icmp eq i8 %73, 13
  br i1 %.not49, label %store_cfl_required.exit.thread46, label %store_cfl_required.exit.thread

store_cfl_required.exit.thread46:                 ; preds = %62, %store_cfl_required.exit
  %74 = load i8, ptr %10, align 8
  tail call void @cfl_store_tx(ptr noundef nonnull %1, i32 noundef %4, i32 noundef %5, i8 noundef zeroext %6, i8 noundef zeroext %74) #16
  br label %store_cfl_required.exit.thread

store_cfl_required.exit.thread:                   ; preds = %66, %is_inter_block.exit.i, %58, %store_cfl_required.exit.thread46, %store_cfl_required.exit, %56
  ret void
}